target datalayout = "e-m:e-p270:32:32-p271:32:32-p272:64:64-i64:64-i128:128-f80:128-n8:16:32:64-S128"
target triple = "x86_64-pc-linux-gnu"

%class.QString = type { ptr }
%class.QDomElement = type { %class.QDomNode }
%class.QDomNode = type { ptr }
%class.RichParameter = type { ptr, %class.QString, ptr, %class.QString, %class.QString, i8, i8, %class.QString }

@.str.56 = private unnamed_addr constant [6 x i8] c"Param\00", align 1
@.str.57 = private unnamed_addr constant [5 x i8] c"name\00", align 1
@.str.58 = private unnamed_addr constant [5 x i8] c"type\00", align 1
@.str.59 = private unnamed_addr constant [12 x i8] c"description\00", align 1
@.str.60 = private unnamed_addr constant [8 x i8] c"tooltip\00", align 1

; Function Attrs: mustprogress nounwind uwtable
define linkonce_odr void @_ZN11QDomElementD2Ev(ptr noundef nonnull align 8 dereferenceable(8) %0) unnamed_addr #0 comdat align 2 {
  %2 = alloca ptr, align 8
  store ptr %0, ptr %2, align 8
  %3 = load ptr, ptr %2, align 8
  call void @_ZN8QDomNodeD2Ev(ptr noundef nonnull align 8 dereferenceable(8) %3) #5
  ret void
}

; Function Attrs: mustprogress uwtable
define linkonce_odr void @_ZN7QStringC2EPKc(ptr noundef nonnull align 8 dereferenceable(8) %0, ptr noundef %1) unnamed_addr #1 comdat align 2 {
  %3 = alloca ptr, align 8
  %4 = alloca ptr, align 8
  store ptr %0, ptr %3, align 8
  store ptr %1, ptr %4, align 8
  %5 = load ptr, ptr %3, align 8
  %6 = getelementptr inbounds %class.QString, ptr %5, i32 0, i32 0
  %7 = load ptr, ptr %4, align 8
  %8 = load ptr, ptr %4, align 8
  %9 = icmp ne ptr %8, null
  br i1 %9, label %10, label %14

10:                                               ; preds = %2
  %11 = load ptr, ptr %4, align 8
  %12 = call i64 @strlen(ptr noundef %11) #17
  %13 = trunc i64 %12 to i32
  br label %15

14:                                               ; preds = %2
  br label %15

15:                                               ; preds = %14, %10
  %16 = phi i32 [ %13, %10 ], [ -1, %14 ]
  %17 = call noundef ptr @_ZN7QString16fromAscii_helperEPKci(ptr noundef %7, i32 noundef %16)
  store ptr %17, ptr %6, align 8
  ret void
}

; Function Attrs: mustprogress uwtable
define void @_ZNK13RichParameter17fillToXMLDocumentER12QDomDocumentb(ptr dead_on_unwind noalias writable sret(%class.QDomElement) align 8 %0, ptr noundef nonnull align 8 dereferenceable(56) %1, ptr noundef nonnull align 8 dereferenceable(8) %2, i1 noundef zeroext %3) unnamed_addr #1 align 2 personality ptr @__gxx_personality_v0 {
  %5 = alloca ptr, align 8
  %6 = alloca ptr, align 8
  %7 = alloca ptr, align 8
  %8 = alloca i8, align 1
  %9 = alloca i1, align 1
  %10 = alloca %class.QString, align 8
  %11 = alloca ptr, align 8
  %12 = alloca i32, align 4
  %13 = alloca %class.QString, align 8
  %14 = alloca %class.QString, align 8
  %15 = alloca %class.QString, align 8
  %16 = alloca %class.QString, align 8
  %17 = alloca %class.QString, align 8
  store ptr %0, ptr %5, align 8
  store ptr %1, ptr %6, align 8
  store ptr %2, ptr %7, align 8
  %18 = zext i1 %3 to i8
  store i8 %18, ptr %8, align 1
  %19 = load ptr, ptr %6, align 8
  store i1 false, ptr %9, align 1
  %20 = load ptr, ptr %7, align 8
  call void @_ZN7QStringC2EPKc(ptr noundef nonnull align 8 dereferenceable(8) %10, ptr noundef @.str.56)
  invoke void @_ZN12QDomDocument13createElementERK7QString(ptr dead_on_unwind writable sret(%class.QDomElement) align 8 %0, ptr noundef nonnull align 8 dereferenceable(8) %20, ptr noundef nonnull align 8 dereferenceable(8) %10)
          to label %21 unwind label %40

21:                                               ; preds = %4
  call void @_ZN7QStringD2Ev(ptr noundef nonnull align 8 dereferenceable(8) %10) #5
  invoke void @_ZN7QStringC2EPKc(ptr noundef nonnull align 8 dereferenceable(8) %13, ptr noundef @.str.57)
          to label %22 unwind label %44

22:                                               ; preds = %21
  %23 = getelementptr inbounds %class.RichParameter, ptr %19, i32 0, i32 1
  invoke void @_ZN11QDomElement12setAttributeERK7QStringS2_(ptr noundef nonnull align 8 dereferenceable(8) %0, ptr noundef nonnull align 8 dereferenceable(8) %13, ptr noundef nonnull align 8 dereferenceable(8) %23)
          to label %24 unwind label %48

24:                                               ; preds = %22
  call void @_ZN7QStringD2Ev(ptr noundef nonnull align 8 dereferenceable(8) %13) #5
  invoke void @_ZN7QStringC2EPKc(ptr noundef nonnull align 8 dereferenceable(8) %14, ptr noundef @.str.58)
          to label %25 unwind label %44

25:                                               ; preds = %24
  %26 = load ptr, ptr %19, align 8
  %27 = getelementptr inbounds ptr, ptr %26, i64 4
  %28 = load ptr, ptr %27, align 8
  invoke void %28(ptr dead_on_unwind writable sret(%class.QString) align 8 %15, ptr noundef nonnull align 8 dereferenceable(56) %19)
          to label %29 unwind label %52

29:                                               ; preds = %25
  invoke void @_ZN11QDomElement12setAttributeERK7QStringS2_(ptr noundef nonnull align 8 dereferenceable(8) %0, ptr noundef nonnull align 8 dereferenceable(8) %14, ptr noundef nonnull align 8 dereferenceable(8) %15)
          to label %30 unwind label %56

30:                                               ; preds = %29
  call void @_ZN7QStringD2Ev(ptr noundef nonnull align 8 dereferenceable(8) %15) #5
  call void @_ZN7QStringD2Ev(ptr noundef nonnull align 8 dereferenceable(8) %14) #5
  %31 = load i8, ptr %8, align 1
  %32 = trunc i8 %31 to i1
  br i1 %32, label %33, label %69

33:                                               ; preds = %30
  invoke void @_ZN7QStringC2EPKc(ptr noundef nonnull align 8 dereferenceable(8) %16, ptr noundef @.str.59)
          to label %34 unwind label %44

34:                                               ; preds = %33
  %35 = getelementptr inbounds %class.RichParameter, ptr %19, i32 0, i32 3
  invoke void @_ZN11QDomElement12setAttributeERK7QStringS2_(ptr noundef nonnull align 8 dereferenceable(8) %0, ptr noundef nonnull align 8 dereferenceable(8) %16, ptr noundef nonnull align 8 dereferenceable(8) %35)
          to label %36 unwind label %61

36:                                               ; preds = %34
  call void @_ZN7QStringD2Ev(ptr noundef nonnull align 8 dereferenceable(8) %16) #5
  invoke void @_ZN7QStringC2EPKc(ptr noundef nonnull align 8 dereferenceable(8) %17, ptr noundef @.str.60)
          to label %37 unwind label %44

37:                                               ; preds = %36
  %38 = getelementptr inbounds %class.RichParameter, ptr %19, i32 0, i32 4
  invoke void @_ZN11QDomElement12setAttributeERK7QStringS2_(ptr noundef nonnull align 8 dereferenceable(8) %0, ptr noundef nonnull align 8 dereferenceable(8) %17, ptr noundef nonnull align 8 dereferenceable(8) %38)
          to label %39 unwind label %65

39:                                               ; preds = %37
  call void @_ZN7QStringD2Ev(ptr noundef nonnull align 8 dereferenceable(8) %17) #5
  br label %69

40:                                               ; preds = %4
  %41 = landingpad { ptr, i32 }
          cleanup
  %42 = extractvalue { ptr, i32 } %41, 0
  store ptr %42, ptr %11, align 8
  %43 = extractvalue { ptr, i32 } %41, 1
  store i32 %43, ptr %12, align 4
  call void @_ZN7QStringD2Ev(ptr noundef nonnull align 8 dereferenceable(8) %10) #5
  br label %80

44:                                               ; preds = %69, %36, %33, %24, %21
  %45 = landingpad { ptr, i32 }
          cleanup
  %46 = extractvalue { ptr, i32 } %45, 0
  store ptr %46, ptr %11, align 8
  %47 = extractvalue { ptr, i32 } %45, 1
  store i32 %47, ptr %12, align 4
  br label %79

48:                                               ; preds = %22
  %49 = landingpad { ptr, i32 }
          cleanup
  %50 = extractvalue { ptr, i32 } %49, 0
  store ptr %50, ptr %11, align 8
  %51 = extractvalue { ptr, i32 } %49, 1
  store i32 %51, ptr %12, align 4
  call void @_ZN7QStringD2Ev(ptr noundef nonnull align 8 dereferenceable(8) %13) #5
  br label %79

52:                                               ; preds = %25
  %53 = landingpad { ptr, i32 }
          cleanup
  %54 = extractvalue { ptr, i32 } %53, 0
  store ptr %54, ptr %11, align 8
  %55 = extractvalue { ptr, i32 } %53, 1
  store i32 %55, ptr %12, align 4
  br label %60

56:                                               ; preds = %29
  %57 = landingpad { ptr, i32 }
          cleanup
  %58 = extractvalue { ptr, i32 } %57, 0
  store ptr %58, ptr %11, align 8
  %59 = extractvalue { ptr, i32 } %57, 1
  store i32 %59, ptr %12, align 4
  call void @_ZN7QStringD2Ev(ptr noundef nonnull align 8 dereferenceable(8) %15) #5
  br label %60

60:                                               ; preds = %56, %52
  call void @_ZN7QStringD2Ev(ptr noundef nonnull align 8 dereferenceable(8) %14) #5
  br label %79

61:                                               ; preds = %34
  %62 = landingpad { ptr, i32 }
          cleanup
  %63 = extractvalue { ptr, i32 } %62, 0
  store ptr %63, ptr %11, align 8
  %64 = extractvalue { ptr, i32 } %62, 1
  store i32 %64, ptr %12, align 4
  call void @_ZN7QStringD2Ev(ptr noundef nonnull align 8 dereferenceable(8) %16) #5
  br label %79

65:                                               ; preds = %37
  %66 = landingpad { ptr, i32 }
          cleanup
  %67 = extractvalue { ptr, i32 } %66, 0
  store ptr %67, ptr %11, align 8
  %68 = extractvalue { ptr, i32 } %66, 1
  store i32 %68, ptr %12, align 4
  call void @_ZN7QStringD2Ev(ptr noundef nonnull align 8 dereferenceable(8) %17) #5
  br label %79

69:                                               ; preds = %39, %30
  %70 = getelementptr inbounds %class.RichParameter, ptr %19, i32 0, i32 2
  %71 = load ptr, ptr %70, align 8
  %72 = load ptr, ptr %71, align 8
  %73 = getelementptr inbounds ptr, ptr %72, i64 22
  %74 = load ptr, ptr %73, align 8
  invoke void %74(ptr noundef nonnull align 8 dereferenceable(8) %71, ptr noundef nonnull align 8 dereferenceable(8) %0)
          to label %75 unwind label %44

75:                                               ; preds = %69
  store i1 true, ptr %9, align 1
  %76 = load i1, ptr %9, align 1
  br i1 %76, label %78, label %77

77:                                               ; preds = %75
  call void @_ZN11QDomElementD2Ev(ptr noundef nonnull align 8 dereferenceable(8) %0) #5
  br label %78

78:                                               ; preds = %77, %75
  ret void

79:                                               ; preds = %65, %61, %60, %48, %44
  call void @_ZN11QDomElementD2Ev(ptr noundef nonnull align 8 dereferenceable(8) %0) #5
  br label %80

80:                                               ; preds = %79, %40
  %81 = load ptr, ptr %11, align 8
  %82 = load i32, ptr %12, align 4
  %83 = insertvalue { ptr, i32 } poison, ptr %81, 0
  %84 = insertvalue { ptr, i32 } %83, i32 %82, 1
  resume { ptr, i32 } %84
}