; Function Attrs: mustprogress uwtable
define void @_ZNK13RichParameter17fillToXMLDocumentER12QDomDocumentb(ptr dead_on_unwind noalias writable sret(%class.QDomElement) align 8 %0, ptr noundef nonnull align 8 dereferenceable(56) %1, ptr noundef nonnull align 8 dereferenceable(8) %2, i1 noundef zeroext %3) unnamed_addr #1 align 2 personality ptr @__gxx_personality_v0 {
  %5 = alloca %class.QString, align 8
  %6 = alloca %class.QString, align 8
  %7 = alloca %class.QString, align 8
  %8 = alloca %class.QString, align 8
  %9 = alloca %class.QString, align 8
  %10 = alloca %class.QString, align 8
  %11 = tail call noundef ptr @_ZN7QString16fromAscii_helperEPKci(ptr noundef nonnull @.str.56, i32 noundef 5)
  store ptr %11, ptr %5, align 8
  invoke void @_ZN12QDomDocument13createElementERK7QString(ptr dead_on_unwind writable sret(%class.QDomElement) align 8 %0, ptr noundef nonnull align 8 dereferenceable(8) %2, ptr noundef nonnull align 8 dereferenceable(8) %5)
          to label %12 unwind label %57

12:                                               ; preds = %4
  %13 = load ptr, ptr %5, align 8
  %14 = load atomic i32, ptr %13 monotonic, align 4
  switch i32 %14, label %_ZN9QtPrivate8RefCount5derefEv.exit.i [
    i32 0, label %_ZN9QtPrivate8RefCount5derefEv.exit.thread2.i
    i32 -1, label %_ZN7QStringD2Ev.exit
  ]

_ZN9QtPrivate8RefCount5derefEv.exit.i:            ; preds = %12
  %15 = atomicrmw sub ptr %13, i32 1 seq_cst, align 4
  %.not.i = icmp eq i32 %15, 1
  br i1 %.not.i, label %_ZN9QtPrivate8RefCount5derefEv.exit._ZN9QtPrivate8RefCount5derefEv.exit.thread2_crit_edge.i, label %_ZN7QStringD2Ev.exit

_ZN9QtPrivate8RefCount5derefEv.exit._ZN9QtPrivate8RefCount5derefEv.exit.thread2_crit_edge.i: ; preds = %_ZN9QtPrivate8RefCount5derefEv.exit.i
  %.pre.i = load ptr, ptr %5, align 8
  br label %_ZN9QtPrivate8RefCount5derefEv.exit.thread2.i

_ZN9QtPrivate8RefCount5derefEv.exit.thread2.i:    ; preds = %_ZN9QtPrivate8RefCount5derefEv.exit._ZN9QtPrivate8RefCount5derefEv.exit.thread2_crit_edge.i, %12
  %16 = phi ptr [ %.pre.i, %_ZN9QtPrivate8RefCount5derefEv.exit._ZN9QtPrivate8RefCount5derefEv.exit.thread2_crit_edge.i ], [ %13, %12 ]
  call void @_ZN10QArrayData10deallocateEPS_mm(ptr noundef %16, i64 noundef 2, i64 noundef 8) #21
  br label %_ZN7QStringD2Ev.exit

_ZN7QStringD2Ev.exit:                             ; preds = %12, %_ZN9QtPrivate8RefCount5derefEv.exit.i, %_ZN9QtPrivate8RefCount5derefEv.exit.thread2.i
  %17 = invoke noundef ptr @_ZN7QString16fromAscii_helperEPKci(ptr noundef nonnull @.str.57, i32 noundef 4)
          to label %18 unwind label %59

18:                                               ; preds = %_ZN7QStringD2Ev.exit
  store ptr %17, ptr %6, align 8
  %19 = getelementptr inbounds i8, ptr %1, i64 8
  invoke void @_ZN11QDomElement12setAttributeERK7QStringS2_(ptr noundef nonnull align 8 dereferenceable(8) %0, ptr noundef nonnull align 8 dereferenceable(8) %6, ptr noundef nonnull align 8 dereferenceable(8) %19)
          to label %20 unwind label %61

20:                                               ; preds = %18
  %21 = load ptr, ptr %6, align 8
  %22 = load atomic i32, ptr %21 monotonic, align 4
  switch i32 %22, label %_ZN9QtPrivate8RefCount5derefEv.exit.i13 [
    i32 0, label %_ZN9QtPrivate8RefCount5derefEv.exit.thread2.i12
    i32 -1, label %_ZN7QStringD2Ev.exit17
  ]

_ZN9QtPrivate8RefCount5derefEv.exit.i13:          ; preds = %20
  %23 = atomicrmw sub ptr %21, i32 1 seq_cst, align 4
  %.not.i14 = icmp eq i32 %23, 1
  br i1 %.not.i14, label %_ZN9QtPrivate8RefCount5derefEv.exit._ZN9QtPrivate8RefCount5derefEv.exit.thread2_crit_edge.i15, label %_ZN7QStringD2Ev.exit17

_ZN9QtPrivate8RefCount5derefEv.exit._ZN9QtPrivate8RefCount5derefEv.exit.thread2_crit_edge.i15: ; preds = %_ZN9QtPrivate8RefCount5derefEv.exit.i13
  %.pre.i16 = load ptr, ptr %6, align 8
  br label %_ZN9QtPrivate8RefCount5derefEv.exit.thread2.i12

_ZN9QtPrivate8RefCount5derefEv.exit.thread2.i12:  ; preds = %_ZN9QtPrivate8RefCount5derefEv.exit._ZN9QtPrivate8RefCount5derefEv.exit.thread2_crit_edge.i15, %20
  %24 = phi ptr [ %.pre.i16, %_ZN9QtPrivate8RefCount5derefEv.exit._ZN9QtPrivate8RefCount5derefEv.exit.thread2_crit_edge.i15 ], [ %21, %20 ]
  call void @_ZN10QArrayData10deallocateEPS_mm(ptr noundef %24, i64 noundef 2, i64 noundef 8) #21
  br label %_ZN7QStringD2Ev.exit17

_ZN7QStringD2Ev.exit17:                           ; preds = %20, %_ZN9QtPrivate8RefCount5derefEv.exit.i13, %_ZN9QtPrivate8RefCount5derefEv.exit.thread2.i12
  %25 = invoke noundef ptr @_ZN7QString16fromAscii_helperEPKci(ptr noundef nonnull @.str.58, i32 noundef 4)
          to label %26 unwind label %59

26:                                               ; preds = %_ZN7QStringD2Ev.exit17
  store ptr %25, ptr %7, align 8
  %27 = load ptr, ptr %1, align 8
  %28 = getelementptr inbounds i8, ptr %27, i64 32
  %29 = load ptr, ptr %28, align 8
  invoke void %29(ptr dead_on_unwind nonnull writable sret(%class.QString) align 8 %8, ptr noundef nonnull align 8 dereferenceable(56) %1)
          to label %30 unwind label %63

30:                                               ; preds = %26
  invoke void @_ZN11QDomElement12setAttributeERK7QStringS2_(ptr noundef nonnull align 8 dereferenceable(8) %0, ptr noundef nonnull align 8 dereferenceable(8) %7, ptr noundef nonnull align 8 dereferenceable(8) %8)
          to label %31 unwind label %65

31:                                               ; preds = %30
  %32 = load ptr, ptr %8, align 8
  %33 = load atomic i32, ptr %32 monotonic, align 4
  switch i32 %33, label %_ZN9QtPrivate8RefCount5derefEv.exit.i20 [
    i32 0, label %_ZN9QtPrivate8RefCount5derefEv.exit.thread2.i19
    i32 -1, label %_ZN7QStringD2Ev.exit24
  ]

_ZN9QtPrivate8RefCount5derefEv.exit.i20:          ; preds = %31
  %34 = atomicrmw sub ptr %32, i32 1 seq_cst, align 4
  %.not.i21 = icmp eq i32 %34, 1
  br i1 %.not.i21, label %_ZN9QtPrivate8RefCount5derefEv.exit._ZN9QtPrivate8RefCount5derefEv.exit.thread2_crit_edge.i22, label %_ZN7QStringD2Ev.exit24

_ZN9QtPrivate8RefCount5derefEv.exit._ZN9QtPrivate8RefCount5derefEv.exit.thread2_crit_edge.i22: ; preds = %_ZN9QtPrivate8RefCount5derefEv.exit.i20
  %.pre.i23 = load ptr, ptr %8, align 8
  br label %_ZN9QtPrivate8RefCount5derefEv.exit.thread2.i19

_ZN9QtPrivate8RefCount5derefEv.exit.thread2.i19:  ; preds = %_ZN9QtPrivate8RefCount5derefEv.exit._ZN9QtPrivate8RefCount5derefEv.exit.thread2_crit_edge.i22, %31
  %35 = phi ptr [ %.pre.i23, %_ZN9QtPrivate8RefCount5derefEv.exit._ZN9QtPrivate8RefCount5derefEv.exit.thread2_crit_edge.i22 ], [ %32, %31 ]
  call void @_ZN10QArrayData10deallocateEPS_mm(ptr noundef %35, i64 noundef 2, i64 noundef 8) #21
  br label %_ZN7QStringD2Ev.exit24

_ZN7QStringD2Ev.exit24:                           ; preds = %31, %_ZN9QtPrivate8RefCount5derefEv.exit.i20, %_ZN9QtPrivate8RefCount5derefEv.exit.thread2.i19
  %36 = load ptr, ptr %7, align 8
  %37 = load atomic i32, ptr %36 monotonic, align 4
  switch i32 %37, label %_ZN9QtPrivate8RefCount5derefEv.exit.i26 [
    i32 0, label %_ZN9QtPrivate8RefCount5derefEv.exit.thread2.i25
    i32 -1, label %_ZN7QStringD2Ev.exit30
  ]

_ZN9QtPrivate8RefCount5derefEv.exit.i26:          ; preds = %_ZN7QStringD2Ev.exit24
  %38 = atomicrmw sub ptr %36, i32 1 seq_cst, align 4
  %.not.i27 = icmp eq i32 %38, 1
  br i1 %.not.i27, label %_ZN9QtPrivate8RefCount5derefEv.exit._ZN9QtPrivate8RefCount5derefEv.exit.thread2_crit_edge.i28, label %_ZN7QStringD2Ev.exit30

_ZN9QtPrivate8RefCount5derefEv.exit._ZN9QtPrivate8RefCount5derefEv.exit.thread2_crit_edge.i28: ; preds = %_ZN9QtPrivate8RefCount5derefEv.exit.i26
  %.pre.i29 = load ptr, ptr %7, align 8
  br label %_ZN9QtPrivate8RefCount5derefEv.exit.thread2.i25

_ZN9QtPrivate8RefCount5derefEv.exit.thread2.i25:  ; preds = %_ZN9QtPrivate8RefCount5derefEv.exit._ZN9QtPrivate8RefCount5derefEv.exit.thread2_crit_edge.i28, %_ZN7QStringD2Ev.exit24
  %39 = phi ptr [ %.pre.i29, %_ZN9QtPrivate8RefCount5derefEv.exit._ZN9QtPrivate8RefCount5derefEv.exit.thread2_crit_edge.i28 ], [ %36, %_ZN7QStringD2Ev.exit24 ]
  call void @_ZN10QArrayData10deallocateEPS_mm(ptr noundef %39, i64 noundef 2, i64 noundef 8) #21
  br label %_ZN7QStringD2Ev.exit30

_ZN7QStringD2Ev.exit30:                           ; preds = %_ZN7QStringD2Ev.exit24, %_ZN9QtPrivate8RefCount5derefEv.exit.i26, %_ZN9QtPrivate8RefCount5derefEv.exit.thread2.i25
  br i1 %3, label %40, label %_ZN7QStringD2Ev.exit44

40:                                               ; preds = %_ZN7QStringD2Ev.exit30
  %41 = invoke noundef ptr @_ZN7QString16fromAscii_helperEPKci(ptr noundef nonnull @.str.59, i32 noundef 11)
          to label %42 unwind label %59

42:                                               ; preds = %40
  store ptr %41, ptr %9, align 8
  %43 = getelementptr inbounds i8, ptr %1, i64 24
  invoke void @_ZN11QDomElement12setAttributeERK7QStringS2_(ptr noundef nonnull align 8 dereferenceable(8) %0, ptr noundef nonnull align 8 dereferenceable(8) %9, ptr noundef nonnull align 8 dereferenceable(8) %43)
          to label %44 unwind label %68

44:                                               ; preds = %42
  %45 = load ptr, ptr %9, align 8
  %46 = load atomic i32, ptr %45 monotonic, align 4
  switch i32 %46, label %_ZN9QtPrivate8RefCount5derefEv.exit.i33 [
    i32 0, label %_ZN9QtPrivate8RefCount5derefEv.exit.thread2.i32
    i32 -1, label %_ZN7QStringD2Ev.exit37
  ]

_ZN9QtPrivate8RefCount5derefEv.exit.i33:          ; preds = %44
  %47 = atomicrmw sub ptr %45, i32 1 seq_cst, align 4
  %.not.i34 = icmp eq i32 %47, 1
  br i1 %.not.i34, label %_ZN9QtPrivate8RefCount5derefEv.exit._ZN9QtPrivate8RefCount5derefEv.exit.thread2_crit_edge.i35, label %_ZN7QStringD2Ev.exit37

_ZN9QtPrivate8RefCount5derefEv.exit._ZN9QtPrivate8RefCount5derefEv.exit.thread2_crit_edge.i35: ; preds = %_ZN9QtPrivate8RefCount5derefEv.exit.i33
  %.pre.i36 = load ptr, ptr %9, align 8
  br label %_ZN9QtPrivate8RefCount5derefEv.exit.thread2.i32

_ZN9QtPrivate8RefCount5derefEv.exit.thread2.i32:  ; preds = %_ZN9QtPrivate8RefCount5derefEv.exit._ZN9QtPrivate8RefCount5derefEv.exit.thread2_crit_edge.i35, %44
  %48 = phi ptr [ %.pre.i36, %_ZN9QtPrivate8RefCount5derefEv.exit._ZN9QtPrivate8RefCount5derefEv.exit.thread2_crit_edge.i35 ], [ %45, %44 ]
  call void @_ZN10QArrayData10deallocateEPS_mm(ptr noundef %48, i64 noundef 2, i64 noundef 8) #21
  br label %_ZN7QStringD2Ev.exit37

_ZN7QStringD2Ev.exit37:                           ; preds = %44, %_ZN9QtPrivate8RefCount5derefEv.exit.i33, %_ZN9QtPrivate8RefCount5derefEv.exit.thread2.i32
  %49 = invoke noundef ptr @_ZN7QString16fromAscii_helperEPKci(ptr noundef nonnull @.str.60, i32 noundef 7)
          to label %50 unwind label %59

50:                                               ; preds = %_ZN7QStringD2Ev.exit37
  store ptr %49, ptr %10, align 8
  %51 = getelementptr inbounds i8, ptr %1, i64 32
  invoke void @_ZN11QDomElement12setAttributeERK7QStringS2_(ptr noundef nonnull align 8 dereferenceable(8) %0, ptr noundef nonnull align 8 dereferenceable(8) %10, ptr noundef nonnull align 8 dereferenceable(8) %51)
          to label %52 unwind label %70

52:                                               ; preds = %50
  %53 = load ptr, ptr %10, align 8
  %54 = load atomic i32, ptr %53 monotonic, align 4
  switch i32 %54, label %_ZN9QtPrivate8RefCount5derefEv.exit.i40 [
    i32 0, label %_ZN9QtPrivate8RefCount5derefEv.exit.thread2.i39
    i32 -1, label %_ZN7QStringD2Ev.exit44
  ]

_ZN9QtPrivate8RefCount5derefEv.exit.i40:          ; preds = %52
  %55 = atomicrmw sub ptr %53, i32 1 seq_cst, align 4
  %.not.i41 = icmp eq i32 %55, 1
  br i1 %.not.i41, label %_ZN9QtPrivate8RefCount5derefEv.exit._ZN9QtPrivate8RefCount5derefEv.exit.thread2_crit_edge.i42, label %_ZN7QStringD2Ev.exit44

_ZN9QtPrivate8RefCount5derefEv.exit._ZN9QtPrivate8RefCount5derefEv.exit.thread2_crit_edge.i42: ; preds = %_ZN9QtPrivate8RefCount5derefEv.exit.i40
  %.pre.i43 = load ptr, ptr %10, align 8
  br label %_ZN9QtPrivate8RefCount5derefEv.exit.thread2.i39

_ZN9QtPrivate8RefCount5derefEv.exit.thread2.i39:  ; preds = %_ZN9QtPrivate8RefCount5derefEv.exit._ZN9QtPrivate8RefCount5derefEv.exit.thread2_crit_edge.i42, %52
  %56 = phi ptr [ %.pre.i43, %_ZN9QtPrivate8RefCount5derefEv.exit._ZN9QtPrivate8RefCount5derefEv.exit.thread2_crit_edge.i42 ], [ %53, %52 ]
  call void @_ZN10QArrayData10deallocateEPS_mm(ptr noundef %56, i64 noundef 2, i64 noundef 8) #21
  br label %_ZN7QStringD2Ev.exit44

57:                                               ; preds = %4
  %58 = landingpad { ptr, i32 }
          cleanup
  call void @_ZN7QStringD2Ev(ptr noundef nonnull align 8 dereferenceable(8) %5) #21
  br label %79

59:                                               ; preds = %_ZN7QStringD2Ev.exit37, %40, %_ZN7QStringD2Ev.exit17, %_ZN7QStringD2Ev.exit, %_ZN7QStringD2Ev.exit44
  %60 = landingpad { ptr, i32 }
          cleanup
  br label %78

61:                                               ; preds = %18
  %62 = landingpad { ptr, i32 }
          cleanup
  call void @_ZN7QStringD2Ev(ptr noundef nonnull align 8 dereferenceable(8) %6) #21
  br label %78

63:                                               ; preds = %26
  %64 = landingpad { ptr, i32 }
          cleanup
  br label %67

65:                                               ; preds = %30
  %66 = landingpad { ptr, i32 }
          cleanup
  call void @_ZN7QStringD2Ev(ptr noundef nonnull align 8 dereferenceable(8) %8) #21
  br label %67

67:                                               ; preds = %65, %63
  %.pn = phi { ptr, i32 } [ %66, %65 ], [ %64, %63 ]
  call void @_ZN7QStringD2Ev(ptr noundef nonnull align 8 dereferenceable(8) %7) #21
  br label %78

68:                                               ; preds = %42
  %69 = landingpad { ptr, i32 }
          cleanup
  call void @_ZN7QStringD2Ev(ptr noundef nonnull align 8 dereferenceable(8) %9) #21
  br label %78

70:                                               ; preds = %50
  %71 = landingpad { ptr, i32 }
          cleanup
  call void @_ZN7QStringD2Ev(ptr noundef nonnull align 8 dereferenceable(8) %10) #21
  br label %78

_ZN7QStringD2Ev.exit44:                           ; preds = %_ZN9QtPrivate8RefCount5derefEv.exit.thread2.i39, %_ZN9QtPrivate8RefCount5derefEv.exit.i40, %52, %_ZN7QStringD2Ev.exit30
  %72 = getelementptr inbounds i8, ptr %1, i64 16
  %73 = load ptr, ptr %72, align 8
  %74 = load ptr, ptr %73, align 8
  %75 = getelementptr inbounds i8, ptr %74, i64 176
  %76 = load ptr, ptr %75, align 8
  invoke void %76(ptr noundef nonnull align 8 dereferenceable(8) %73, ptr noundef nonnull align 8 dereferenceable(8) %0)
          to label %77 unwind label %59

77:                                               ; preds = %_ZN7QStringD2Ev.exit44
  ret void

78:                                               ; preds = %70, %68, %67, %61, %59
  %.pn9 = phi { ptr, i32 } [ %60, %59 ], [ %71, %70 ], [ %69, %68 ], [ %.pn, %67 ], [ %62, %61 ]
  call void @_ZN8QDomNodeD2Ev(ptr noundef nonnull align 8 dereferenceable(8) %0) #21
  br label %79

79:                                               ; preds = %78, %57
  %.pn9.pn = phi { ptr, i32 } [ %.pn9, %78 ], [ %58, %57 ]
  resume { ptr, i32 } %.pn9.pn
}